; Function Attrs: mustprogress uwtable
define hidden void @_ZN3smt9theory_bv12new_diseq_ehEii(ptr noundef nonnull align 8 dereferenceable(1048) %this, i32 noundef %v1, i32 noundef %v2) unnamed_addr #3 align 2 {
entry:
  %m_var2enode.i.i = getelementptr inbounds i8, ptr %this, i64 32
  %0 = load ptr, ptr %m_var2enode.i.i, align 8
  %idxprom.i.i.i = zext i32 %v1 to i64
  %arrayidx.i.i.i = getelementptr inbounds ptr, ptr %0, i64 %idxprom.i.i.i
  %1 = load ptr, ptr %arrayidx.i.i.i, align 8
  %2 = load ptr, ptr %1, align 8
  %m_util.i.i.i = getelementptr inbounds i8, ptr %this, i64 80
  %call.i.i.i = tail call noundef ptr @_ZNK4expr8get_sortEv(ptr noundef nonnull align 4 dereferenceable(16) %2)
  %call2.i.i.i = tail call noundef zeroext i1 @_ZNK14bv_recognizers10is_bv_sortEPK4sort(ptr noundef nonnull align 4 dereferenceable(4) %m_util.i.i.i, ptr noundef %call.i.i.i)
  br i1 %call2.i.i.i, label %if.then, label %if.end

if.then:                                          ; preds = %entry
  %vtable = load ptr, ptr %this, align 8
  %vfn = getelementptr inbounds i8, ptr %vtable, i64 376
  %3 = load ptr, ptr %vfn, align 8
  tail call void %3(ptr noundef nonnull align 8 dereferenceable(1048) %this, i32 noundef %v1, i32 noundef %v2)
  br label %if.end

if.end:                                           ; preds = %if.then, %entry
  ret void
}